target datalayout = "e-m:e-p270:32:32-p271:32:32-p272:64:64-i64:64-i128:128-f80:128-n8:16:32:64-S128"
target triple = "x86_64-pc-linux-gnu"

%struct.XLogRecData = type { ptr, ptr, i32 }
%struct.registered_buffer = type { i8, i8, %struct.RelFileLocator, i32, i32, ptr, i32, ptr, ptr, [2 x %struct.XLogRecData], [8196 x i8] }
%struct.RelFileLocator = type { i32, i32, i32 }
%struct.PageHeaderData = type { %struct.PageXLogRecPtr, i16, i16, i16, i16, i16, i16, i32, [0 x %struct.ItemIdData] }
%struct.PageXLogRecPtr = type { i32, i32 }
%struct.ItemIdData = type { i32 }

@.str.1 = private unnamed_addr constant [13 x i8] c"xloginsert.c\00", align 1
@max_registered_buffers = internal global i32 0, align 4
@registered_buffers = internal global ptr null, align 8
@max_registered_block_id = internal global i32 0, align 4
@.str.4 = private unnamed_addr constant [28 x i8] c"too many registered buffers\00", align 1
@__func__.XLogRegisterBlock = private unnamed_addr constant [18 x i8] c"XLogRegisterBlock\00", align 1

; Function Attrs: inlinehint nounwind uwtable
define internal void @PageSetLSN(ptr noundef %0, i64 noundef %1) #5 {
  %3 = alloca ptr, align 8
  %4 = alloca i64, align 8
  store ptr %0, ptr %3, align 8
  store i64 %1, ptr %4, align 8
  %5 = load i64, ptr %4, align 8
  %6 = lshr i64 %5, 32
  %7 = trunc i64 %6 to i32
  %8 = load ptr, ptr %3, align 8
  %9 = getelementptr inbounds nuw %struct.PageHeaderData, ptr %8, i32 0, i32 0
  %10 = getelementptr inbounds nuw %struct.PageXLogRecPtr, ptr %9, i32 0, i32 0
  store i32 %7, ptr %10, align 4
  %11 = load i64, ptr %4, align 8
  %12 = trunc i64 %11 to i32
  %13 = load ptr, ptr %3, align 8
  %14 = getelementptr inbounds nuw %struct.PageHeaderData, ptr %13, i32 0, i32 0
  %15 = getelementptr inbounds nuw %struct.PageXLogRecPtr, ptr %14, i32 0, i32 1
  store i32 %12, ptr %15, align 4
  ret void
}

; Function Attrs: inlinehint nounwind uwtable
define internal zeroext i1 @PageIsNew(ptr noundef %0) #5 {
  %2 = alloca ptr, align 8
  store ptr %0, ptr %2, align 8
  %3 = load ptr, ptr %2, align 8
  %4 = getelementptr inbounds nuw %struct.PageHeaderData, ptr %3, i32 0, i32 4
  %5 = load i16, ptr %4, align 2
  %6 = zext i16 %5 to i32
  %7 = icmp eq i32 %6, 0
  ret i1 %7
}

; Function Attrs: nounwind uwtable
define dso_local void @XLogRegisterBlock(i8 noundef zeroext %0, ptr noundef %1, i32 noundef %2, i32 noundef %3, ptr noundef %4, i8 noundef zeroext %5) #0 {
  %7 = alloca i8, align 1
  %8 = alloca ptr, align 8
  %9 = alloca i32, align 4
  %10 = alloca i32, align 4
  %11 = alloca ptr, align 8
  %12 = alloca i8, align 1
  %13 = alloca ptr, align 8
  store i8 %0, ptr %7, align 1
  store ptr %1, ptr %8, align 8
  store i32 %2, ptr %9, align 4
  store i32 %3, ptr %10, align 4
  store ptr %4, ptr %11, align 8
  store i8 %5, ptr %12, align 1
  call void @llvm.lifetime.start.p0(i64 8, ptr %13) #9
  %14 = load i8, ptr %7, align 1
  %15 = zext i8 %14 to i32
  %16 = load i32, ptr @max_registered_block_id, align 4
  %17 = icmp sge i32 %15, %16
  br i1 %17, label %18, label %22

18:                                               ; preds = %6
  %19 = load i8, ptr %7, align 1
  %20 = zext i8 %19 to i32
  %21 = add i32 %20, 1
  store i32 %21, ptr @max_registered_block_id, align 4
  br label %22

22:                                               ; preds = %18, %6
  %23 = load i8, ptr %7, align 1
  %24 = zext i8 %23 to i32
  %25 = load i32, ptr @max_registered_buffers, align 4
  %26 = icmp sge i32 %24, %25
  br i1 %26, label %27, label %38

27:                                               ; preds = %22
  br label %28

28:                                               ; preds = %27
  br i1 true, label %29, label %31

29:                                               ; preds = %28
  %30 = call zeroext i1 @errstart_cold(i32 noundef 21, ptr noundef null) #8
  br i1 %30, label %33, label %35

31:                                               ; preds = %28
  %32 = call zeroext i1 @errstart(i32 noundef 21, ptr noundef null)
  br i1 %32, label %33, label %35

33:                                               ; preds = %31, %29
  %34 = call i32 (ptr, ...) @errmsg_internal(ptr noundef @.str.4)
  call void @errfinish(ptr noundef @.str.1, i32 noundef 320, ptr noundef @__func__.XLogRegisterBlock)
  br label %35

35:                                               ; preds = %33, %31, %29
  unreachable

36:                                               ; No predecessors!
  br label %37

37:                                               ; preds = %36
  br label %38

38:                                               ; preds = %37, %22
  %39 = load ptr, ptr @registered_buffers, align 8
  %40 = load i8, ptr %7, align 1
  %41 = zext i8 %40 to i64
  %42 = getelementptr inbounds nuw %struct.registered_buffer, ptr %39, i64 %41
  store ptr %42, ptr %13, align 8
  %43 = load ptr, ptr %13, align 8
  %44 = getelementptr inbounds nuw %struct.registered_buffer, ptr %43, i32 0, i32 2
  %45 = load ptr, ptr %8, align 8
  call void @llvm.memcpy.p0.p0.i64(ptr align 4 %44, ptr align 4 %45, i64 12, i1 false)
  %46 = load i32, ptr %9, align 4
  %47 = load ptr, ptr %13, align 8
  %48 = getelementptr inbounds nuw %struct.registered_buffer, ptr %47, i32 0, i32 3
  store i32 %46, ptr %48, align 8
  %49 = load i32, ptr %10, align 4
  %50 = load ptr, ptr %13, align 8
  %51 = getelementptr inbounds nuw %struct.registered_buffer, ptr %50, i32 0, i32 4
  store i32 %49, ptr %51, align 4
  %52 = load ptr, ptr %11, align 8
  %53 = load ptr, ptr %13, align 8
  %54 = getelementptr inbounds nuw %struct.registered_buffer, ptr %53, i32 0, i32 5
  store ptr %52, ptr %54, align 8
  %55 = load i8, ptr %12, align 1
  %56 = load ptr, ptr %13, align 8
  %57 = getelementptr inbounds nuw %struct.registered_buffer, ptr %56, i32 0, i32 1
  store i8 %55, ptr %57, align 1
  %58 = load ptr, ptr %13, align 8
  %59 = getelementptr inbounds nuw %struct.registered_buffer, ptr %58, i32 0, i32 7
  %60 = load ptr, ptr %13, align 8
  %61 = getelementptr inbounds nuw %struct.registered_buffer, ptr %60, i32 0, i32 8
  store ptr %59, ptr %61, align 8
  %62 = load ptr, ptr %13, align 8
  %63 = getelementptr inbounds nuw %struct.registered_buffer, ptr %62, i32 0, i32 6
  store i32 0, ptr %63, align 8
  %64 = load ptr, ptr %13, align 8
  %65 = getelementptr inbounds nuw %struct.registered_buffer, ptr %64, i32 0, i32 0
  store i8 1, ptr %65, align 8
  call void @llvm.lifetime.end.p0(i64 8, ptr %13) #9
  ret void
}

; Function Attrs: nounwind uwtable
define dso_local i64 @log_newpage(ptr noundef %0, i32 noundef %1, i32 noundef %2, ptr noundef %3, i1 noundef zeroext %4) #0 {
  %6 = alloca ptr, align 8
  %7 = alloca i32, align 4
  %8 = alloca i32, align 4
  %9 = alloca ptr, align 8
  %10 = alloca i8, align 1
  %11 = alloca i32, align 4
  %12 = alloca i64, align 8
  store ptr %0, ptr %6, align 8
  store i32 %1, ptr %7, align 4
  store i32 %2, ptr %8, align 4
  store ptr %3, ptr %9, align 8
  %13 = zext i1 %4 to i8
  store i8 %13, ptr %10, align 1
  call void @llvm.lifetime.start.p0(i64 4, ptr %11) #9
  call void @llvm.lifetime.start.p0(i64 8, ptr %12) #9
  store i32 1, ptr %11, align 4
  %14 = load i8, ptr %10, align 1, !range !4, !noundef !5
  %15 = trunc i8 %14 to i1
  br i1 %15, label %16, label %19

16:                                               ; preds = %5
  %17 = load i32, ptr %11, align 4
  %18 = or i32 %17, 8
  store i32 %18, ptr %11, align 4
  br label %19

19:                                               ; preds = %16, %5
  call void @XLogBeginInsert()
  %20 = load ptr, ptr %6, align 8
  %21 = load i32, ptr %7, align 4
  %22 = load i32, ptr %8, align 4
  %23 = load ptr, ptr %9, align 8
  %24 = load i32, ptr %11, align 4
  %25 = trunc i32 %24 to i8
  call void @XLogRegisterBlock(i8 noundef zeroext 0, ptr noundef %20, i32 noundef %21, i32 noundef %22, ptr noundef %23, i8 noundef zeroext %25)
  %26 = call i64 @XLogInsert(i8 noundef zeroext 0, i8 noundef zeroext -80)
  store i64 %26, ptr %12, align 8
  %27 = load ptr, ptr %9, align 8
  %28 = call zeroext i1 @PageIsNew(ptr noundef %27)
  br i1 %28, label %32, label %29

29:                                               ; preds = %19
  %30 = load ptr, ptr %9, align 8
  %31 = load i64, ptr %12, align 8
  call void @PageSetLSN(ptr noundef %30, i64 noundef %31)
  br label %32

32:                                               ; preds = %29, %19
  %33 = load i64, ptr %12, align 8
  call void @llvm.lifetime.end.p0(i64 8, ptr %12) #9
  call void @llvm.lifetime.end.p0(i64 4, ptr %11) #9
  ret i64 %33
}