; Function Attrs: nounwind uwtable
define dso_local range(i64 1, 0) i64 @log_newpage(ptr noundef readonly captures(none) %0, i32 noundef %1, i32 noundef %2, ptr noundef %3, i1 noundef zeroext %4) local_unnamed_addr #0 {
  %spec.select = select i1 %4, i8 9, i8 1
  tail call void @XLogBeginInsert()
  %6 = load i32, ptr @max_registered_block_id, align 4
  %.not.i = icmp sgt i32 %6, 0
  br i1 %.not.i, label %8, label %7

7:                                                ; preds = %5
  store i32 1, ptr @max_registered_block_id, align 4
  br label %8

8:                                                ; preds = %7, %5
  %9 = load i32, ptr @max_registered_buffers, align 4
  %.not17.i = icmp sgt i32 %9, 0
  br i1 %.not17.i, label %XLogRegisterBlock.exit, label %10

10:                                               ; preds = %8
  %11 = tail call zeroext i1 @errstart_cold(i32 noundef 21, ptr noundef null) #11
  tail call void @llvm.assume(i1 %11)
  %12 = tail call i32 (ptr, ...) @errmsg_internal(ptr noundef nonnull @.str.4) #10
  tail call void @errfinish(ptr noundef nonnull @.str.1, i32 noundef 320, ptr noundef nonnull @__func__.XLogRegisterBlock) #10
  unreachable

XLogRegisterBlock.exit:                           ; preds = %8
  %13 = load ptr, ptr @registered_buffers, align 8
  %14 = getelementptr inbounds nuw i8, ptr %13, i64 4
  tail call void @llvm.memcpy.p0.p0.i64(ptr noundef nonnull align 4 dereferenceable(12) %14, ptr noundef nonnull readonly align 4 dereferenceable(12) %0, i64 12, i1 false)
  %15 = getelementptr inbounds nuw i8, ptr %13, i64 16
  store i32 %1, ptr %15, align 8
  %16 = getelementptr inbounds nuw i8, ptr %13, i64 20
  store i32 %2, ptr %16, align 4
  %17 = getelementptr inbounds nuw i8, ptr %13, i64 24
  store ptr %3, ptr %17, align 8
  %18 = getelementptr inbounds nuw i8, ptr %13, i64 1
  store i8 %spec.select, ptr %18, align 1
  %19 = getelementptr inbounds nuw i8, ptr %13, i64 40
  %20 = getelementptr inbounds nuw i8, ptr %13, i64 48
  store ptr %19, ptr %20, align 8
  %21 = getelementptr inbounds nuw i8, ptr %13, i64 32
  store i32 0, ptr %21, align 8
  store i8 1, ptr %13, align 8
  %22 = tail call i64 @XLogInsert(i8 noundef zeroext 0, i8 noundef zeroext -80)
  %23 = getelementptr i8, ptr %3, i64 14
  %.val = load i16, ptr %23, align 2
  %24 = icmp eq i16 %.val, 0
  br i1 %24, label %30, label %25

25:                                               ; preds = %XLogRegisterBlock.exit
  %26 = lshr i64 %22, 32
  %27 = trunc nuw i64 %26 to i32
  store i32 %27, ptr %3, align 4
  %28 = trunc i64 %22 to i32
  %29 = getelementptr inbounds nuw i8, ptr %3, i64 4
  store i32 %28, ptr %29, align 4
  br label %30

30:                                               ; preds = %25, %XLogRegisterBlock.exit
  ret i64 %22
}